target datalayout = "e-m:e-p270:32:32-p271:32:32-p272:64:64-i64:64-i128:128-f80:128-n8:16:32:64-S128"
target triple = "x86_64-pc-linux-gnu"

%struct.CRYPTO_REF_COUNT = type { i32 }
%struct.ecx_key_st = type { ptr, ptr, i8, [57 x i8], ptr, i64, i32, %struct.CRYPTO_REF_COUNT }
%struct.evp_pkey_ctx_st = type { i32, ptr, ptr, ptr, ptr, %union.anon, %struct.anon.5, ptr, ptr, ptr, i32, i32, ptr, ptr, ptr, ptr, ptr, i8, ptr }
%union.anon = type { %struct.anon.1 }
%struct.anon.1 = type { ptr, ptr }
%struct.anon.5 = type { ptr, ptr, i64, i8 }

@.str.8 = private unnamed_addr constant [32 x i8] c"../openssl/crypto/ec/ecx_meth.c\00", align 1
@__func__.validate_ecx_derive = private unnamed_addr constant [20 x i8] c"validate_ecx_derive\00", align 1

; Function Attrs: nounwind uwtable
define internal i32 @validate_ecx_derive(ptr noundef %0, ptr noundef %1, ptr noundef %2, ptr noundef %3, ptr noundef %4) #0 {
  %6 = alloca i32, align 4
  %7 = alloca ptr, align 8
  %8 = alloca ptr, align 8
  %9 = alloca ptr, align 8
  %10 = alloca ptr, align 8
  %11 = alloca ptr, align 8
  %12 = alloca ptr, align 8
  %13 = alloca ptr, align 8
  %14 = alloca i32, align 4
  store ptr %0, ptr %7, align 8, !tbaa !70
  store ptr %1, ptr %8, align 8, !tbaa !14
  store ptr %2, ptr %9, align 8, !tbaa !52
  store ptr %3, ptr %10, align 8, !tbaa !48
  store ptr %4, ptr %11, align 8, !tbaa !48
  call void @llvm.lifetime.start.p0(i64 8, ptr %12) #4
  call void @llvm.lifetime.start.p0(i64 8, ptr %13) #4
  %15 = load ptr, ptr %7, align 8, !tbaa !70
  %16 = getelementptr inbounds nuw %struct.evp_pkey_ctx_st, ptr %15, i32 0, i32 14
  %17 = load ptr, ptr %16, align 8, !tbaa !82
  %18 = icmp eq ptr %17, null
  br i1 %18, label %24, label %19

19:                                               ; preds = %5
  %20 = load ptr, ptr %7, align 8, !tbaa !70
  %21 = getelementptr inbounds nuw %struct.evp_pkey_ctx_st, ptr %20, i32 0, i32 15
  %22 = load ptr, ptr %21, align 8, !tbaa !83
  %23 = icmp eq ptr %22, null
  br i1 %23, label %24, label %25

24:                                               ; preds = %19, %5
  call void @ERR_new()
  call void @ERR_set_debug(ptr noundef @.str.8, i32 noundef 731, ptr noundef @__func__.validate_ecx_derive)
  call void (i32, i32, ptr, ...) @ERR_set_error(i32 noundef 16, i32 noundef 140, ptr noundef null)
  store i32 0, ptr %6, align 4
  store i32 1, ptr %14, align 4
  br label %55

25:                                               ; preds = %19
  %26 = load ptr, ptr %7, align 8, !tbaa !70
  %27 = getelementptr inbounds nuw %struct.evp_pkey_ctx_st, ptr %26, i32 0, i32 14
  %28 = load ptr, ptr %27, align 8, !tbaa !82
  %29 = call ptr @evp_pkey_get_legacy(ptr noundef %28)
  store ptr %29, ptr %12, align 8, !tbaa !31
  %30 = load ptr, ptr %7, align 8, !tbaa !70
  %31 = getelementptr inbounds nuw %struct.evp_pkey_ctx_st, ptr %30, i32 0, i32 15
  %32 = load ptr, ptr %31, align 8, !tbaa !83
  %33 = call ptr @evp_pkey_get_legacy(ptr noundef %32)
  store ptr %33, ptr %13, align 8, !tbaa !31
  %34 = load ptr, ptr %12, align 8, !tbaa !31
  %35 = icmp eq ptr %34, null
  br i1 %35, label %41, label %36

36:                                               ; preds = %25
  %37 = load ptr, ptr %12, align 8, !tbaa !31
  %38 = getelementptr inbounds nuw %struct.ecx_key_st, ptr %37, i32 0, i32 4
  %39 = load ptr, ptr %38, align 8, !tbaa !40
  %40 = icmp eq ptr %39, null
  br i1 %40, label %41, label %42

41:                                               ; preds = %36, %25
  call void @ERR_new()
  call void @ERR_set_debug(ptr noundef @.str.8, i32 noundef 737, ptr noundef @__func__.validate_ecx_derive)
  call void (i32, i32, ptr, ...) @ERR_set_error(i32 noundef 16, i32 noundef 123, ptr noundef null)
  store i32 0, ptr %6, align 4
  store i32 1, ptr %14, align 4
  br label %55

42:                                               ; preds = %36
  %43 = load ptr, ptr %13, align 8, !tbaa !31
  %44 = icmp eq ptr %43, null
  br i1 %44, label %45, label %46

45:                                               ; preds = %42
  call void @ERR_new()
  call void @ERR_set_debug(ptr noundef @.str.8, i32 noundef 741, ptr noundef @__func__.validate_ecx_derive)
  call void (i32, i32, ptr, ...) @ERR_set_error(i32 noundef 16, i32 noundef 133, ptr noundef null)
  store i32 0, ptr %6, align 4
  store i32 1, ptr %14, align 4
  br label %55

46:                                               ; preds = %42
  %47 = load ptr, ptr %12, align 8, !tbaa !31
  %48 = getelementptr inbounds nuw %struct.ecx_key_st, ptr %47, i32 0, i32 4
  %49 = load ptr, ptr %48, align 8, !tbaa !40
  %50 = load ptr, ptr %10, align 8, !tbaa !48
  store ptr %49, ptr %50, align 8, !tbaa !14
  %51 = load ptr, ptr %13, align 8, !tbaa !31
  %52 = getelementptr inbounds nuw %struct.ecx_key_st, ptr %51, i32 0, i32 3
  %53 = getelementptr inbounds [57 x i8], ptr %52, i64 0, i64 0
  %54 = load ptr, ptr %11, align 8, !tbaa !48
  store ptr %53, ptr %54, align 8, !tbaa !14
  store i32 1, ptr %6, align 4
  store i32 1, ptr %14, align 4
  br label %55

55:                                               ; preds = %46, %45, %41, %24
  call void @llvm.lifetime.end.p0(i64 8, ptr %13) #4
  call void @llvm.lifetime.end.p0(i64 8, ptr %12) #4
  %56 = load i32, ptr %6, align 4
  ret i32 %56
}