; Function Attrs: nounwind uwtable
define internal fastcc range(i32 0, 2) i32 @validate_ecx_derive(ptr noundef readonly captures(none) %0, ptr noundef nonnull writeonly captures(none) %1, ptr noundef nonnull writeonly captures(none) %2) unnamed_addr #0 {
  %4 = getelementptr inbounds nuw i8, ptr %0, i64 136
  %5 = load ptr, ptr %4, align 8, !tbaa !51
  %6 = icmp eq ptr %5, null
  br i1 %6, label %11, label %7

7:                                                ; preds = %3
  %8 = getelementptr inbounds nuw i8, ptr %0, i64 144
  %9 = load ptr, ptr %8, align 8, !tbaa !52
  %10 = icmp eq ptr %9, null
  br i1 %10, label %11, label %12

11:                                               ; preds = %7, %3
  tail call void @ERR_new() #8
  tail call void @ERR_set_debug(ptr noundef nonnull @.str.8, i32 noundef 731, ptr noundef nonnull @__func__.validate_ecx_derive) #8
  tail call void (i32, i32, ptr, ...) @ERR_set_error(i32 noundef 16, i32 noundef 140, ptr noundef null) #8
  br label %27

12:                                               ; preds = %7
  %13 = tail call ptr @evp_pkey_get_legacy(ptr noundef nonnull %5) #8
  %14 = load ptr, ptr %8, align 8, !tbaa !52
  %15 = tail call ptr @evp_pkey_get_legacy(ptr noundef %14) #8
  %16 = icmp eq ptr %13, null
  br i1 %16, label %21, label %17

17:                                               ; preds = %12
  %18 = getelementptr inbounds nuw i8, ptr %13, i64 80
  %19 = load ptr, ptr %18, align 8, !tbaa !28
  %20 = icmp eq ptr %19, null
  br i1 %20, label %21, label %22

21:                                               ; preds = %17, %12
  tail call void @ERR_new() #8
  tail call void @ERR_set_debug(ptr noundef nonnull @.str.8, i32 noundef 737, ptr noundef nonnull @__func__.validate_ecx_derive) #8
  tail call void (i32, i32, ptr, ...) @ERR_set_error(i32 noundef 16, i32 noundef 123, ptr noundef null) #8
  br label %27

22:                                               ; preds = %17
  %23 = icmp eq ptr %15, null
  br i1 %23, label %24, label %25

24:                                               ; preds = %22
  tail call void @ERR_new() #8
  tail call void @ERR_set_debug(ptr noundef nonnull @.str.8, i32 noundef 741, ptr noundef nonnull @__func__.validate_ecx_derive) #8
  tail call void (i32, i32, ptr, ...) @ERR_set_error(i32 noundef 16, i32 noundef 133, ptr noundef null) #8
  br label %27

25:                                               ; preds = %22
  store ptr %19, ptr %1, align 8, !tbaa !8
  %26 = getelementptr inbounds nuw i8, ptr %15, i64 17
  store ptr %26, ptr %2, align 8, !tbaa !8
  br label %27

27:                                               ; preds = %25, %24, %21, %11
  %.0 = phi i32 [ 0, %11 ], [ 0, %21 ], [ 0, %24 ], [ 1, %25 ]
  ret i32 %.0
}